(dp0
S'METTS MARK'
p1
(dp2
S'to_messages'
p3
F807.0
sS'deferral_payments'
p4
S'NaN'
p5
sS'expenses'
p6
F94299.0
sS'cost_to_company'
p7
F1646889.0
sS'poi'
p8
I00
sS'long_term_incentive'
p9
g5
sS'email_address'
p10
S'mark.metts@enron.com'
p11
sS'from_poi_to_this_person'
p12
F38.0
sS'deferred_income'
p13
g5
sS'restricted_stock_deferred'
p14
g5
sS'shared_receipt_with_poi'
p15
F702.0
sS'loan_advances'
p16
g5
sS'from_messages'
p17
F29.0
sS'other'
p18
F1740.0
sS'director_fees'
p19
g5
sS'bonus'
p20
F600000.0
sS'total_stock_value'
p21
F585062.0
sS'from_this_person_to_poi'
p22
F1.0
sS'restricted_stock'
p23
F585062.0
sS'salary'
p24
F365788.0
sS'total_payments'
p25
F1061827.0
sS'exercised_stock_options'
p26
g5
ssS'BAXTER JOHN C'
p27
(dp28
g3
g5
sg4
F1295738.0
sg6
F11200.0
sg7
F16257601.0
sg8
I00
sg9
F1586055.0
sg10
S'NaN'
p29
sg12
g5
sg13
F-1386055.0
sg14
g5
sg15
g5
sg16
g5
sg17
g5
sg18
F2660303.0
sg19
g5
sg20
F1200000.0
sg21
F10623258.0
sg22
g5
sg23
F3942714.0
sg24
F267102.0
sg25
F5634343.0
sg26
F6680544.0
ssS'ELLIOTT STEVEN'
p30
(dp31
g3
g5
sg4
g5
sg6
F78552.0
sg7
F6890460.0
sg8
I00
sg9
g5
sg10
S'steven.elliott@enron.com'
p32
sg12
g5
sg13
F-400729.0
sg14
g5
sg15
g5
sg16
g5
sg17
g5
sg18
F12961.0
sg19
g5
sg20
F350000.0
sg21
F6678735.0
sg22
g5
sg23
F1788391.0
sg24
F170941.0
sg25
F211725.0
sg26
F4890344.0
ssS'CORDES WILLIAM R'
p33
(dp34
g3
F764.0
sg4
g5
sg6
g5
sg7
g5
sg8
I00
sg9
g5
sg10
S'bill.cordes@enron.com'
p35
sg12
F10.0
sg13
g5
sg14
g5
sg15
F58.0
sg16
g5
sg17
F12.0
sg18
g5
sg19
g5
sg20
g5
sg21
F1038185.0
sg22
F0.0
sg23
F386335.0
sg24
g5
sg25
g5
sg26
F651850.0
ssS'HANNON KEVIN P'
p36
(dp37
g3
F1045.0
sg4
g5
sg6
F34039.0
sg7
F6679747.0
sg8
I01
sg9
F1617011.0
sg10
S'kevin.hannon@enron.com'
p38
sg12
F32.0
sg13
F-3117011.0
sg14
g5
sg15
F1035.0
sg16
g5
sg17
F32.0
sg18
F11350.0
sg19
g5
sg20
F1500000.0
sg21
F6391065.0
sg22
F21.0
sg23
F853064.0
sg24
F243293.0
sg25
F288682.0
sg26
F5538001.0
ssS'MORDAUNT KRISTINA M'
p39
(dp40
g3
g5
sg4
g5
sg6
F35018.0
sg7
F837032.0
sg8
I00
sg9
g5
sg10
S'kristina.mordaunt@enron.com'
p41
sg12
g5
sg13
g5
sg14
g5
sg15
g5
sg16
g5
sg17
g5
sg18
F1411.0
sg19
g5
sg20
F325000.0
sg21
F208510.0
sg22
g5
sg23
F208510.0
sg24
F267093.0
sg25
F628522.0
sg26
g5
ssS'MEYER ROCKFORD G'
p42
(dp43
g3
F232.0
sg4
F1848227.0
sg6
g5
sg7
F2804100.0
sg8
I00
sg9
g5
sg10
S'rockford.meyer@enron.com'
p44
sg12
F0.0
sg13
g5
sg14
g5
sg15
F22.0
sg16
g5
sg17
F28.0
sg18
g5
sg19
g5
sg20
g5
sg21
F955873.0
sg22
F0.0
sg23
F462384.0
sg24
g5
sg25
F1848227.0
sg26
F493489.0
ssS'MCMAHON JEFFREY'
p45
(dp46
g3
F2355.0
sg4
g5
sg6
F137108.0
sg7
F5762626.0
sg8
I00
sg9
F694862.0
sg10
S'jeffrey.mcmahon@enron.com'
p47
sg12
F58.0
sg13
g5
sg14
g5
sg15
F2228.0
sg16
g5
sg17
F48.0
sg18
F297353.0
sg19
g5
sg20
F2600000.0
sg21
F1662855.0
sg22
F26.0
sg23
F558801.0
sg24
F370448.0
sg25
F4099771.0
sg26
F1104054.0
ssS'HORTON STANLEY C'
p48
(dp49
g3
F2350.0
sg4
F3131860.0
sg6
g5
sg7
F10388508.0
sg8
I00
sg9
g5
sg10
S'stanley.horton@enron.com'
p50
sg12
F44.0
sg13
g5
sg14
g5
sg15
F1074.0
sg16
g5
sg17
F1073.0
sg18
g5
sg19
g5
sg20
g5
sg21
F7256648.0
sg22
F15.0
sg23
F2046079.0
sg24
g5
sg25
F3131860.0
sg26
F5210569.0
ssS'PIPER GREGORY F'
p51
(dp52
g3
F1238.0
sg4
F1130036.0
sg6
F43057.0
sg7
F2617919.0
sg8
I00
sg9
g5
sg10
S'greg.piper@enron.com'
p53
sg12
F61.0
sg13
F-33333.0
sg14
F-409554.0
sg15
F742.0
sg16
g5
sg17
F222.0
sg18
F778.0
sg19
g5
sg20
F400000.0
sg21
F880290.0
sg22
F48.0
sg23
F409554.0
sg24
F197091.0
sg25
F1737629.0
sg26
F880290.0
ssS'HUMPHREY GENE E'
p54
(dp55
g3
F128.0
sg4
F2964506.0
sg6
F4994.0
sg7
F5382992.0
sg8
I00
sg9
g5
sg10
S'gene.humphrey@enron.com'
p56
sg12
F10.0
sg13
g5
sg14
g5
sg15
F119.0
sg16
g5
sg17
F17.0
sg18
g5
sg19
g5
sg20
g5
sg21
F2282768.0
sg22
F17.0
sg23
g5
sg24
F130724.0
sg25
F3100224.0
sg26
F2282768.0
ssS'UMANOFF ADAM S'
p57
(dp58
g3
F111.0
sg4
g5
sg6
F53122.0
sg7
g5
sg8
I00
sg9
g5
sg10
S'adam.umanoff@enron.com'
p59
sg12
F12.0
sg13
g5
sg14
g5
sg15
F41.0
sg16
g5
sg17
F18.0
sg18
g5
sg19
g5
sg20
F788750.0
sg21
g5
sg22
F0.0
sg23
g5
sg24
F288589.0
sg25
F1130461.0
sg26
g5
ssS'BLACHMAN JEREMY M'
p60
(dp61
g3
F2475.0
sg4
g5
sg6
F84208.0
sg7
F2969189.0
sg8
I00
sg9
F831809.0
sg10
S'jeremy.blachman@enron.com'
p62
sg12
F25.0
sg13
g5
sg14
g5
sg15
F2326.0
sg16
g5
sg17
F14.0
sg18
F272.0
sg19
g5
sg20
F850000.0
sg21
F954354.0
sg22
F2.0
sg23
F189041.0
sg24
F248546.0
sg25
F2014835.0
sg26
F765313.0
ssS'SUNDE MARTIN'
p63
(dp64
g3
F2647.0
sg4
g5
sg6
g5
sg7
F2243979.0
sg8
I00
sg9
F476451.0
sg10
S'marty.sunde@enron.com'
p65
sg12
F37.0
sg13
g5
sg14
g5
sg15
F2565.0
sg16
g5
sg17
F38.0
sg18
F111122.0
sg19
g5
sg20
F700000.0
sg21
F698920.0
sg22
F13.0
sg23
F698920.0
sg24
F257486.0
sg25
F1545059.0
sg26
g5
ssS'GIBBS DANA R'
p66
(dp67
g3
F169.0
sg4
F504610.0
sg6
g5
sg7
F3184797.0
sg8
I00
sg9
F461912.0
sg10
S'dana.gibbs@enron.com'
p68
sg12
F0.0
sg13
g5
sg14
g5
sg15
F23.0
sg16
g5
sg17
F12.0
sg18
g5
sg19
g5
sg20
g5
sg21
F2218275.0
sg22
F0.0
sg23
g5
sg24
g5
sg25
F966522.0
sg26
F2218275.0
ssS'LOWRY CHARLES P'
p69
(dp70
g3
g5
sg4
g5
sg6
g5
sg7
g5
sg8
I00
sg9
g5
sg10
g29
sg12
g5
sg13
g5
sg14
F-153686.0
sg15
g5
sg16
g5
sg17
g5
sg18
g5
sg19
g5
sg20
g5
sg21
F372205.0
sg22
g5
sg23
F153686.0
sg24
g5
sg25
g5
sg26
F372205.0
ssS'COLWELL WESLEY'
p71
(dp72
g3
F1758.0
sg4
F27610.0
sg6
F16514.0
sg7
F2188586.0
sg8
I01
sg9
g5
sg10
S'wes.colwell@enron.com'
p73
sg12
F240.0
sg13
F-144062.0
sg14
g5
sg15
F1132.0
sg16
g5
sg17
F40.0
sg18
F101740.0
sg19
g5
sg20
F1200000.0
sg21
F698242.0
sg22
F11.0
sg23
F698242.0
sg24
F288542.0
sg25
F1490344.0
sg26
g5
ssS'MULLER MARK S'
p74
(dp75
g3
F136.0
sg4
F842924.0
sg6
g5
sg7
F4618918.0
sg8
I00
sg9
F1725545.0
sg10
S's..muller@enron.com'
p76
sg12
F12.0
sg13
F-719000.0
sg14
g5
sg15
F114.0
sg16
g5
sg17
F16.0
sg18
F947.0
sg19
g5
sg20
F1100000.0
sg21
F1416848.0
sg22
F0.0
sg23
F360528.0
sg24
F251654.0
sg25
F3202070.0
sg26
F1056320.0
ssS'JACKSON CHARLENE R'
p77
(dp78
g3
F258.0
sg4
g5
sg6
F10181.0
sg7
F1276909.0
sg8
I00
sg9
g5
sg10
S'charlene.jackson@enron.com'
p79
sg12
F25.0
sg13
g5
sg14
g5
sg15
F117.0
sg16
g5
sg17
F56.0
sg18
F2435.0
sg19
g5
sg20
F250000.0
sg21
F725735.0
sg22
F19.0
sg23
F540672.0
sg24
F288558.0
sg25
F551174.0
sg26
F185063.0
ssS'WESTFAHL RICHARD K'
p80
(dp81
g3
g5
sg4
g5
sg6
F51870.0
sg7
F1147065.0
sg8
I00
sg9
F256191.0
sg10
S'dick.westfahl@enron.com'
p82
sg12
g5
sg13
F-10800.0
sg14
g5
sg15
g5
sg16
g5
sg17
g5
sg18
F401130.0
sg19
g5
sg20
g5
sg21
F384930.0
sg22
g5
sg23
F384930.0
sg24
F63744.0
sg25
F762135.0
sg26
g5
ssS'WALTERS GARETH W'
p83
(dp84
g3
g5
sg4
F53625.0
sg6
F33785.0
sg7
F1117739.0
sg8
I00
sg9
g5
sg10
g29
sg12
g5
sg13
g5
sg14
g5
sg15
g5
sg16
g5
sg17
g5
sg18
g5
sg19
g5
sg20
g5
sg21
F1030329.0
sg22
g5
sg23
g5
sg24
g5
sg25
F87410.0
sg26
F1030329.0
ssS'WALLS JR ROBERT H'
p85
(dp86
g3
F671.0
sg4
g5
sg6
F50936.0
sg7
F7697777.0
sg8
I00
sg9
F540751.0
sg10
S'rob.walls@enron.com'
p87
sg12
F17.0
sg13
g5
sg14
g5
sg15
F215.0
sg16
g5
sg17
F146.0
sg18
F2.0
sg19
g5
sg20
F850000.0
sg21
F5898997.0
sg22
F0.0
sg23
F1552453.0
sg24
F357091.0
sg25
F1798780.0
sg26
F4346544.0
ssS'KITCHEN LOUISE'
p88
(dp89
g3
F8305.0
sg4
g5
sg6
F5774.0
sg7
F4018284.0
sg8
I00
sg9
g5
sg10
S'louise.kitchen@enron.com'
p90
sg12
F251.0
sg13
g5
sg14
g5
sg15
F3669.0
sg16
g5
sg17
F1728.0
sg18
F93925.0
sg19
g5
sg20
F3100000.0
sg21
F547143.0
sg22
F194.0
sg23
F466101.0
sg24
F271442.0
sg25
F3471141.0
sg26
F81042.0
ssS'CHAN RONNIE'
p91
(dp92
g3
g5
sg4
g5
sg6
g5
sg7
g5
sg8
I00
sg9
g5
sg10
g29
sg12
g5
sg13
F-98784.0
sg14
F-32460.0
sg15
g5
sg16
g5
sg17
g5
sg18
g5
sg19
F98784.0
sg20
g5
sg21
g5
sg22
g5
sg23
F32460.0
sg24
g5
sg25
g5
sg26
g5
ssS'BELFER ROBERT'
p93
(dp94
g3
g5
sg4
F-102500.0
sg6
g5
sg7
F58407.0
sg8
I00
sg9
g5
sg10
g29
sg12
g5
sg13
g5
sg14
F44093.0
sg15
g5
sg16
g5
sg17
g5
sg18
g5
sg19
F3285.0
sg20
g5
sg21
F-44093.0
sg22
g5
sg23
g5
sg24
g5
sg25
F102500.0
sg26
F3285.0
ssS'SHANKMAN JEFFREY A'
p95
(dp96
g3
F3221.0
sg4
g5
sg6
F178979.0
sg7
F5110737.0
sg8
I00
sg9
F554422.0
sg10
S'jeffrey.shankman@enron.com'
p97
sg12
F94.0
sg13
g5
sg14
g5
sg15
F1730.0
sg16
g5
sg17
F2681.0
sg18
F1191.0
sg19
g5
sg20
F2000000.0
sg21
F2072035.0
sg22
F83.0
sg23
F630137.0
sg24
F304110.0
sg25
F3038702.0
sg26
F1441898.0
ssS'WODRASKA JOHN'
p98
(dp99
g3
g5
sg4
g5
sg6
g5
sg7
g5
sg8
I00
sg9
g5
sg10
S'john.wodraska@enron.com'
p100
sg12
g5
sg13
g5
sg14
g5
sg15
g5
sg16
g5
sg17
g5
sg18
F189583.0
sg19
g5
sg20
g5
sg21
g5
sg22
g5
sg23
g5
sg24
g5
sg25
F189583.0
sg26
g5
ssS'BERGSIEKER RICHARD P'
p101
(dp102
g3
F383.0
sg4
g5
sg6
F59175.0
sg7
F1278099.0
sg8
I00
sg9
F180250.0
sg10
S'rick.bergsieker@enron.com'
p103
sg12
F4.0
sg13
F-485813.0
sg14
g5
sg15
F233.0
sg16
g5
sg17
F59.0
sg18
F427316.0
sg19
g5
sg20
F250000.0
sg21
F659249.0
sg22
F0.0
sg23
F659249.0
sg24
F187922.0
sg25
F618850.0
sg26
g5
ssS'URQUHART JOHN A'
p104
(dp105
g3
g5
sg4
g5
sg6
F228656.0
sg7
g5
sg8
I00
sg9
g5
sg10
g29
sg12
g5
sg13
F-36666.0
sg14
g5
sg15
g5
sg16
g5
sg17
g5
sg18
g5
sg19
F36666.0
sg20
g5
sg21
g5
sg22
g5
sg23
g5
sg24
g5
sg25
F228656.0
sg26
g5
ssS'BIBI PHILIPPE A'
p106
(dp107
g3
F1607.0
sg4
g5
sg6
F38559.0
sg7
F3891409.0
sg8
I00
sg9
F369721.0
sg10
S'philippe.bibi@enron.com'
p108
sg12
F23.0
sg13
g5
sg14
g5
sg15
F1336.0
sg16
g5
sg17
F40.0
sg18
F425688.0
sg19
g5
sg20
F1000000.0
sg21
F1843816.0
sg22
F8.0
sg23
F378082.0
sg24
F213625.0
sg25
F2047593.0
sg26
F1465734.0
ssS'PIRO JIM'
p109
(dp110
g3
F58.0
sg4
g5
sg6
g5
sg7
g5
sg8
I00
sg9
g5
sg10
S'jim.piro@enron.com'
p111
sg12
F0.0
sg13
g5
sg14
g5
sg15
F3.0
sg16
g5
sg17
F16.0
sg18
g5
sg19
g5
sg20
g5
sg21
F47304.0
sg22
F1.0
sg23
F47304.0
sg24
g5
sg25
g5
sg26
g5
ssS'RIEKER PAULA H'
p112
(dp113
g3
F1328.0
sg4
F214678.0
sg6
F33271.0
sg7
F3017987.0
sg8
I01
sg9
g5
sg10
S'paula.rieker@enron.com'
p114
sg12
F35.0
sg13
F-100000.0
sg14
g5
sg15
F1258.0
sg16
g5
sg17
F82.0
sg18
F1950.0
sg19
g5
sg20
F700000.0
sg21
F1918887.0
sg22
F48.0
sg23
F283649.0
sg24
F249201.0
sg25
F1099100.0
sg26
F1635238.0
ssS'WHALEY DAVID A'
p115
(dp116
g3
g5
sg4
g5
sg6
g5
sg7
g5
sg8
I00
sg9
g5
sg10
g29
sg12
g5
sg13
g5
sg14
g5
sg15
g5
sg16
g5
sg17
g5
sg18
g5
sg19
g5
sg20
g5
sg21
F98718.0
sg22
g5
sg23
g5
sg24
g5
sg25
g5
sg26
F98718.0
ssS'BECK SALLY W'
p117
(dp118
g3
F7315.0
sg4
g5
sg6
F37172.0
sg7
F1095095.0
sg8
I00
sg9
g5
sg10
S'sally.beck@enron.com'
p119
sg12
F144.0
sg13
g5
sg14
g5
sg15
F2639.0
sg16
g5
sg17
F4343.0
sg18
F566.0
sg19
g5
sg20
F700000.0
sg21
F126027.0
sg22
F386.0
sg23
F126027.0
sg24
F231330.0
sg25
F969068.0
sg26
g5
ssS'HAUG DAVID L'
p120
(dp121
g3
F573.0
sg4
g5
sg6
F475.0
sg7
F2217774.0
sg8
I00
sg9
g5
sg10
S'david.haug@enron.com'
p122
sg12
F4.0
sg13
g5
sg14
g5
sg15
F471.0
sg16
g5
sg17
F19.0
sg18
g5
sg19
g5
sg20
g5
sg21
F2217299.0
sg22
F7.0
sg23
F2217299.0
sg24
g5
sg25
F475.0
sg26
g5
ssS'ECHOLS JOHN B'
p123
(dp124
g3
g5
sg4
g5
sg6
F21530.0
sg7
F3701265.0
sg8
I00
sg9
F2234774.0
sg10
S'john.echols@enron.com'
p125
sg12
g5
sg13
g5
sg14
g5
sg15
g5
sg16
g5
sg17
g5
sg18
F53775.0
sg19
g5
sg20
F200000.0
sg21
F1008941.0
sg22
g5
sg23
F407503.0
sg24
F182245.0
sg25
F2692324.0
sg26
F601438.0
ssS'MENDELSOHN JOHN'
p126
(dp127
g3
g5
sg4
g5
sg6
F148.0
sg7
g5
sg8
I00
sg9
g5
sg10
g29
sg12
g5
sg13
F-103750.0
sg14
g5
sg15
g5
sg16
g5
sg17
g5
sg18
g5
sg19
F103750.0
sg20
g5
sg21
g5
sg22
g5
sg23
g5
sg24
g5
sg25
F148.0
sg26
g5
ssS'HICKERSON GARY J'
p128
(dp129
g3
F1320.0
sg4
g5
sg6
F98849.0
sg7
F2522892.0
sg8
I00
sg9
F69223.0
sg10
S'gary.hickerson@enron.com'
p130
sg12
F40.0
sg13
g5
sg14
g5
sg15
F900.0
sg16
g5
sg17
F27.0
sg18
F1936.0
sg19
g5
sg20
F1700000.0
sg21
F441096.0
sg22
F1.0
sg23
F441096.0
sg24
F211788.0
sg25
F2081796.0
sg26
g5
ssS'CLINE KENNETH W'
p131
(dp132
g3
g5
sg4
g5
sg6
g5
sg7
g5
sg8
I00
sg9
g5
sg10
g29
sg12
g5
sg13
g5
sg14
F-472568.0
sg15
g5
sg16
g5
sg17
g5
sg18
g5
sg19
g5
sg20
g5
sg21
F189518.0
sg22
g5
sg23
F662086.0
sg24
g5
sg25
g5
sg26
g5
ssS'LEWIS RICHARD'
p133
(dp134
g3
F952.0
sg4
g5
sg6
g5
sg7
g5
sg8
I00
sg9
g5
sg10
S'richard.lewis@enron.com'
p135
sg12
F10.0
sg13
g5
sg14
g5
sg15
F739.0
sg16
g5
sg17
F26.0
sg18
g5
sg19
g5
sg20
g5
sg21
F850477.0
sg22
F0.0
sg23
g5
sg24
g5
sg25
g5
sg26
F850477.0
ssS'HAYES ROBERT E'
p136
(dp137
g3
F504.0
sg4
F7961.0
sg6
g5
sg7
F159379.0
sg8
I00
sg9
g5
sg10
S'robert.hayes@enron.com'
p138
sg12
F16.0
sg13
g5
sg14
g5
sg15
F50.0
sg16
g5
sg17
F12.0
sg18
g5
sg19
g5
sg20
g5
sg21
F151418.0
sg22
F0.0
sg23
F151418.0
sg24
g5
sg25
F7961.0
sg26
g5
ssS'KOPPER MICHAEL J'
p139
(dp140
g3
g5
sg4
g5
sg6
F118134.0
sg7
F3637644.0
sg8
I01
sg9
F602671.0
sg10
S'michael.kopper@enron.com'
p141
sg12
g5
sg13
g5
sg14
g5
sg15
g5
sg16
g5
sg17
g5
sg18
F907502.0
sg19
g5
sg20
F800000.0
sg21
F985032.0
sg22
g5
sg23
F985032.0
sg24
F224305.0
sg25
F2652612.0
sg26
g5
ssS'LEFF DANIEL P'
p142
(dp143
g3
F2822.0
sg4
g5
sg6
g5
sg7
F3024756.0
sg8
I00
sg9
F1387399.0
sg10
S'dan.leff@enron.com'
p144
sg12
F67.0
sg13
g5
sg14
g5
sg15
F2672.0
sg16
g5
sg17
F63.0
sg18
F3083.0
sg19
g5
sg20
F1000000.0
sg21
F360528.0
sg22
F14.0
sg23
F360528.0
sg24
F273746.0
sg25
F2664228.0
sg26
g5
ssS'LAVORATO JOHN J'
p145
(dp146
g3
F7259.0
sg4
g5
sg6
F49537.0
sg7
F15592901.0
sg8
I00
sg9
F2035380.0
sg10
S'john.lavorato@enron.com'
p147
sg12
F528.0
sg13
g5
sg14
g5
sg15
F3962.0
sg16
g5
sg17
F2585.0
sg18
F1552.0
sg19
g5
sg20
F8000000.0
sg21
F5167144.0
sg22
F411.0
sg23
F1008149.0
sg24
F339288.0
sg25
F10425757.0
sg26
F4158995.0
ssS'BERBERIAN DAVID'
p148
(dp149
g3
g5
sg4
g5
sg6
F11892.0
sg7
F2722090.0
sg8
I00
sg9
g5
sg10
S'david.berberian@enron.com'
p150
sg12
g5
sg13
g5
sg14
g5
sg15
g5
sg16
g5
sg17
g5
sg18
g5
sg19
g5
sg20
g5
sg21
F2493616.0
sg22
g5
sg23
F869220.0
sg24
F216582.0
sg25
F228474.0
sg26
F1624396.0
ssS'DETMERING TIMOTHY J'
p151
(dp152
g3
g5
sg4
F875307.0
sg6
F52255.0
sg7
F3232448.0
sg8
I00
sg9
F415657.0
sg10
S'timothy.detmering@enron.com'
p153
sg12
g5
sg13
F-775241.0
sg14
F-315068.0
sg15
g5
sg16
g5
sg17
g5
sg18
F1105.0
sg19
g5
sg20
F425000.0
sg21
F2027865.0
sg22
g5
sg23
F315068.0
sg24
F210500.0
sg25
F1204583.0
sg26
F2027865.0
ssS'WAKEHAM JOHN'
p154
(dp155
g3
g5
sg4
g5
sg6
F103773.0
sg7
g5
sg8
I00
sg9
g5
sg10
g29
sg12
g5
sg13
g5
sg14
g5
sg15
g5
sg16
g5
sg17
g5
sg18
g5
sg19
F109298.0
sg20
g5
sg21
g5
sg22
g5
sg23
g5
sg24
g5
sg25
F213071.0
sg26
g5
ssS'POWERS WILLIAM'
p156
(dp157
g3
F653.0
sg4
g5
sg6
g5
sg7
g5
sg8
I00
sg9
g5
sg10
S'ken.powers@enron.com'
p158
sg12
F0.0
sg13
F-17500.0
sg14
g5
sg15
F12.0
sg16
g5
sg17
F26.0
sg18
g5
sg19
F17500.0
sg20
g5
sg21
g5
sg22
F0.0
sg23
g5
sg24
g5
sg25
g5
sg26
g5
ssS'GOLD JOSEPH'
p159
(dp160
g3
g5
sg4
g5
sg6
g5
sg7
F3024584.0
sg8
I00
sg9
F304805.0
sg10
S'joe.gold@enron.com'
p161
sg12
g5
sg13
g5
sg14
g5
sg15
g5
sg16
g5
sg17
g5
sg18
F819288.0
sg19
g5
sg20
F750000.0
sg21
F877611.0
sg22
g5
sg23
F441096.0
sg24
F272880.0
sg25
F2146973.0
sg26
F436515.0
ssS'BANNANTINE JAMES M'
p162
(dp163
g3
F566.0
sg4
g5
sg6
F56301.0
sg7
F6159684.0
sg8
I00
sg9
g5
sg10
S'james.bannantine@enron.com'
p164
sg12
F39.0
sg13
F-5104.0
sg14
F-560222.0
sg15
F465.0
sg16
g5
sg17
F29.0
sg18
F864523.0
sg19
g5
sg20
g5
sg21
F5243487.0
sg22
F0.0
sg23
F1757552.0
sg24
F477.0
sg25
F916197.0
sg26
F4046157.0
ssS'DUNCAN JOHN H'
p165
(dp166
g3
g5
sg4
g5
sg6
g5
sg7
F449242.0
sg8
I00
sg9
g5
sg10
g29
sg12
g5
sg13
F-25000.0
sg14
g5
sg15
g5
sg16
g5
sg17
g5
sg18
g5
sg19
F102492.0
sg20
g5
sg21
F371750.0
sg22
g5
sg23
g5
sg24
g5
sg25
F77492.0
sg26
F371750.0
ssS'SHAPIRO RICHARD S'
p167
(dp168
g3
F15149.0
sg4
g5
sg6
F137767.0
sg7
F2044549.0
sg8
I00
sg9
g5
sg10
S'richard.shapiro@enron.com'
p169
sg12
F74.0
sg13
g5
sg14
g5
sg15
F4527.0
sg16
g5
sg17
F1215.0
sg18
F705.0
sg19
g5
sg20
F650000.0
sg21
F987001.0
sg22
F65.0
sg23
F379164.0
sg24
F269076.0
sg25
F1057548.0
sg26
F607837.0
ssS'SHERRIFF JOHN R'
p170
(dp171
g3
F3187.0
sg4
g5
sg6
g5
sg7
F7464370.0
sg8
I00
sg9
F554422.0
sg10
S'john.sherriff@enron.com'
p172
sg12
F28.0
sg13
g5
sg14
g5
sg15
F2103.0
sg16
g5
sg17
F92.0
sg18
F1852186.0
sg19
g5
sg20
F1500000.0
sg21
F3128982.0
sg22
F23.0
sg23
F1293424.0
sg24
F428780.0
sg25
F4335388.0
sg26
F1835558.0
ssS'SHELBY REX'
p173
(dp174
g3
F225.0
sg4
g5
sg6
F22884.0
sg7
F4497501.0
sg8
I01
sg9
g5
sg10
S'rex.shelby@enron.com'
p175
sg12
F13.0
sg13
F-4167.0
sg14
g5
sg15
F91.0
sg16
g5
sg17
F39.0
sg18
F1573324.0
sg19
g5
sg20
F200000.0
sg21
F2493616.0
sg22
F14.0
sg23
F869220.0
sg24
F211844.0
sg25
F2003885.0
sg26
F1624396.0
ssS'LEMAISTRE CHARLES'
p176
(dp177
g3
g5
sg4
g5
sg6
g5
sg7
F500370.0
sg8
I00
sg9
g5
sg10
g29
sg12
g5
sg13
F-25000.0
sg14
g5
sg15
g5
sg16
g5
sg17
g5
sg18
g5
sg19
F112492.0
sg20
g5
sg21
F412878.0
sg22
g5
sg23
g5
sg24
g5
sg25
F87492.0
sg26
F412878.0
ssS'DEFFNER JOSEPH M'
p178
(dp179
g3
F714.0
sg4
g5
sg6
F41626.0
sg7
F1367860.0
sg8
I00
sg9
F335349.0
sg10
S'joseph.deffner@enron.com'
p180
sg12
F115.0
sg13
g5
sg14
g5
sg15
F552.0
sg16
g5
sg17
F74.0
sg18
F25553.0
sg19
g5
sg20
F600000.0
sg21
F159211.0
sg22
F4.0
sg23
F141833.0
sg24
F206121.0
sg25
F1208649.0
sg26
F17378.0
ssS'KISHKILL JOSEPH G'
p181
(dp182
g3
g5
sg4
g5
sg6
F116335.0
sg7
F1739242.0
sg8
I00
sg9
g5
sg10
S'joe.kishkill@enron.com'
p183
sg12
g5
sg13
F-51042.0
sg14
g5
sg15
g5
sg16
g5
sg17
g5
sg18
F465357.0
sg19
g5
sg20
g5
sg21
F1034346.0
sg22
g5
sg23
F1034346.0
sg24
F174246.0
sg25
F704896.0
sg26
g5
ssS'WHALLEY LAWRENCE G'
p184
(dp185
g3
F6019.0
sg4
g5
sg6
F57838.0
sg7
F10756711.0
sg8
I00
sg9
F808346.0
sg10
S'greg.whalley@enron.com'
p186
sg12
F186.0
sg13
g5
sg14
g5
sg15
F3920.0
sg16
g5
sg17
F556.0
sg18
F301026.0
sg19
g5
sg20
F3000000.0
sg21
F6079137.0
sg22
F24.0
sg23
F2796177.0
sg24
F510364.0
sg25
F4677574.0
sg26
F3282960.0
ssS'MCCARTY DANNY J'
p187
(dp188
g3
F1433.0
sg4
g5
sg6
g5
sg7
g5
sg8
I00
sg9
g5
sg10
S'danny.mccarty@enron.com'
p189
sg12
F25.0
sg13
g5
sg14
g5
sg15
F508.0
sg16
g5
sg17
F215.0
sg18
g5
sg19
g5
sg20
g5
sg21
F758931.0
sg22
F2.0
sg23
F94556.0
sg24
g5
sg25
g5
sg26
F664375.0
ssS'MCCONNELL MICHAEL S'
p190
(dp191
g3
F3329.0
sg4
g5
sg6
F81364.0
sg7
F5202643.0
sg8
I00
sg9
F554422.0
sg10
S'mike.mcconnell@enron.com'
p192
sg12
F92.0
sg13
g5
sg14
g5
sg15
F2189.0
sg16
g5
sg17
F2742.0
sg18
F540.0
sg19
g5
sg20
F1100000.0
sg21
F3101279.0
sg22
F194.0
sg23
F1478269.0
sg24
F365038.0
sg25
F2101364.0
sg26
F1623010.0
ssS'DELAINEY DAVID W'
p193
(dp194
g3
F3093.0
sg4
g5
sg6
F86174.0
sg7
F8362240.0
sg8
I01
sg9
F1294981.0
sg10
S'david.delainey@enron.com'
p195
sg12
F66.0
sg13
g5
sg14
g5
sg15
F2097.0
sg16
g5
sg17
F3069.0
sg18
F1661.0
sg19
g5
sg20
F3000000.0
sg21
F3614261.0
sg22
F609.0
sg23
F1323148.0
sg24
F365163.0
sg25
F4747979.0
sg26
F2291113.0
ssS'SULLIVAN-SHAKLOVITZ COLLEEN'
p196
(dp197
g3
g5
sg4
F181993.0
sg6
g5
sg7
F2361731.0
sg8
I00
sg9
F554422.0
sg10
g29
sg12
g5
sg13
g5
sg14
g5
sg15
g5
sg16
g5
sg17
g5
sg18
F162.0
sg19
g5
sg20
F100000.0
sg21
F1362375.0
sg22
g5
sg23
g5
sg24
F162779.0
sg25
F999356.0
sg26
F1362375.0
ssS'WROBEL BRUCE'
p198
(dp199
g3
g5
sg4
g5
sg6
g5
sg7
g5
sg8
I00
sg9
g5
sg10
g29
sg12
g5
sg13
g5
sg14
g5
sg15
g5
sg16
g5
sg17
g5
sg18
g5
sg19
g5
sg20
g5
sg21
F139130.0
sg22
g5
sg23
g5
sg24
g5
sg25
g5
sg26
F139130.0
ssS'LINDHOLM TOD A'
p200
(dp201
g3
g5
sg4
F204075.0
sg6
F57727.0
sg7
F3940097.0
sg8
I00
sg9
F175000.0
sg10
S'tod.lindholm@enron.com'
p202
sg12
g5
sg13
g5
sg14
g5
sg15
g5
sg16
g5
sg17
g5
sg18
F2630.0
sg19
g5
sg20
F200000.0
sg21
F3064208.0
sg22
g5
sg23
F514847.0
sg24
F236457.0
sg25
F875889.0
sg26
F2549361.0
ssS'MEYER JEROME J'
p203
(dp204
g3
g5
sg4
g5
sg6
F2151.0
sg7
g5
sg8
I00
sg9
g5
sg10
g29
sg12
g5
sg13
F-38346.0
sg14
g5
sg15
g5
sg16
g5
sg17
g5
sg18
g5
sg19
F38346.0
sg20
g5
sg21
g5
sg22
g5
sg23
g5
sg24
g5
sg25
F2151.0
sg26
g5
ssS'LAY KENNETH L'
p205
(dp206
g3
F4273.0
sg4
F202911.0
sg6
F99832.0
sg7
F152669871.0
sg8
I01
sg9
F3600000.0
sg10
S'kenneth.lay@enron.com'
p207
sg12
F123.0
sg13
F-300000.0
sg14
g5
sg15
F2411.0
sg16
F81525000.0
sg17
F36.0
sg18
F10359729.0
sg19
g5
sg20
F7000000.0
sg21
F49110078.0
sg22
F16.0
sg23
F14761694.0
sg24
F1072321.0
sg25
F103559793.0
sg26
F34348384.0
ssS'BUTTS ROBERT H'
p208
(dp209
g3
g5
sg4
g5
sg6
F9410.0
sg7
F1689201.0
sg8
I00
sg9
F175000.0
sg10
S'bob.butts@enron.com'
p210
sg12
g5
sg13
F-75000.0
sg14
g5
sg15
g5
sg16
g5
sg17
g5
sg18
F150656.0
sg19
g5
sg20
F750000.0
sg21
F417619.0
sg22
g5
sg23
F417619.0
sg24
F261516.0
sg25
F1271582.0
sg26
g5
ssS'OLSON CINDY K'
p211
(dp212
g3
F1184.0
sg4
F77716.0
sg6
F63791.0
sg7
F3928320.0
sg8
I00
sg9
F100000.0
sg10
S'cindy.olson@enron.com'
p213
sg12
F20.0
sg13
g5
sg14
g5
sg15
F856.0
sg16
g5
sg17
F52.0
sg18
F972.0
sg19
g5
sg20
F750000.0
sg21
F2606763.0
sg22
F15.0
sg23
F969729.0
sg24
F329078.0
sg25
F1321557.0
sg26
F1637034.0
ssS'MCDONALD REBECCA'
p214
(dp215
g3
F894.0
sg4
g5
sg6
g5
sg7
g5
sg8
I00
sg9
g5
sg10
S'rebecca.mcdonald@enron.com'
p216
sg12
F54.0
sg13
g5
sg14
g5
sg15
F720.0
sg16
g5
sg17
F13.0
sg18
g5
sg19
g5
sg20
g5
sg21
F1691366.0
sg22
F1.0
sg23
F934065.0
sg24
g5
sg25
g5
sg26
F757301.0
ssS'CUMBERLAND MICHAEL S'
p217
(dp218
g3
g5
sg4
g5
sg6
F22344.0
sg7
F1015896.0
sg8
I00
sg9
F275000.0
sg10
g29
sg12
g5
sg13
g5
sg14
g5
sg15
g5
sg16
g5
sg17
g5
sg18
F713.0
sg19
g5
sg20
F325000.0
sg21
F207940.0
sg22
g5
sg23
F207940.0
sg24
F184899.0
sg25
F807956.0
sg26
g5
ssS'GAHN ROBERT S'
p219
(dp220
g3
g5
sg4
F73122.0
sg6
F50080.0
sg7
F1219192.0
sg8
I00
sg9
g5
sg10
g29
sg12
g5
sg13
F-1042.0
sg14
g5
sg15
g5
sg16
g5
sg17
g5
sg18
F76547.0
sg19
g5
sg20
F509870.0
sg21
F318607.0
sg22
g5
sg23
F235370.0
sg24
F192008.0
sg25
F900585.0
sg26
F83237.0
ssS'MCCLELLAN GEORGE'
p221
(dp222
g3
F1744.0
sg4
g5
sg6
F228763.0
sg7
F2266624.0
sg8
I00
sg9
g5
sg10
S'george.mcclellan@enron.com'
p223
sg12
F52.0
sg13
F-125000.0
sg14
g5
sg15
F1469.0
sg16
g5
sg17
F49.0
sg18
F51587.0
sg19
g5
sg20
F900000.0
sg21
F947861.0
sg22
F0.0
sg23
F441096.0
sg24
F263413.0
sg25
F1318763.0
sg26
F506765.0
ssS'HERMANN ROBERT J'
p224
(dp225
g3
g5
sg4
g5
sg6
F48357.0
sg7
F1965593.0
sg8
I00
sg9
F150000.0
sg10
S'robert.hermann@enron.com'
p226
sg12
g5
sg13
F-280000.0
sg14
g5
sg15
g5
sg16
g5
sg17
g5
sg18
F416441.0
sg19
g5
sg20
F700000.0
sg21
F668132.0
sg22
g5
sg23
F480632.0
sg24
F262663.0
sg25
F1297461.0
sg26
F187500.0
ssS'SCRIMSHAW MATTHEW'
p227
(dp228
g3
g5
sg4
g5
sg6
g5
sg7
g5
sg8
I00
sg9
g5
sg10
S'matthew.scrimshaw@enron.com'
p229
sg12
g5
sg13
g5
sg14
g5
sg15
g5
sg16
g5
sg17
g5
sg18
g5
sg19
g5
sg20
g5
sg21
F759557.0
sg22
g5
sg23
g5
sg24
g5
sg25
g5
sg26
F759557.0
ssS'GATHMANN WILLIAM D'
p230
(dp231
g3
g5
sg4
g5
sg6
g5
sg7
g5
sg8
I00
sg9
g5
sg10
g29
sg12
g5
sg13
g5
sg14
F-72419.0
sg15
g5
sg16
g5
sg17
g5
sg18
g5
sg19
g5
sg20
g5
sg21
F1945360.0
sg22
g5
sg23
F264013.0
sg24
g5
sg25
g5
sg26
F1753766.0
ssS'HAEDICKE MARK E'
p232
(dp233
g3
F4009.0
sg4
F2157527.0
sg6
F76169.0
sg7
F4662159.0
sg8
I00
sg9
F983346.0
sg10
S'mark.haedicke@enron.com'
p234
sg12
F180.0
sg13
F-934484.0
sg14
F-329825.0
sg15
F1847.0
sg16
g5
sg17
F1941.0
sg18
F52382.0
sg19
g5
sg20
F1150000.0
sg21
F803094.0
sg22
F61.0
sg23
F524169.0
sg24
F374125.0
sg25
F3859065.0
sg26
F608750.0
ssS'BOWEN JR RAYMOND M'
p235
(dp236
g3
F1858.0
sg4
g5
sg6
F65907.0
sg7
F2921644.0
sg8
I01
sg9
F974293.0
sg10
S'raymond.bowen@enron.com'
p237
sg12
F140.0
sg13
F-833.0
sg14
g5
sg15
F1593.0
sg16
g5
sg17
F27.0
sg18
F1621.0
sg19
g5
sg20
F1350000.0
sg21
F252055.0
sg22
F15.0
sg23
F252055.0
sg24
F278601.0
sg25
F2669589.0
sg26
g5
ssS'GILLIS JOHN'
p238
(dp239
g3
g5
sg4
g5
sg6
g5
sg7
g5
sg8
I00
sg9
g5
sg10
g29
sg12
g5
sg13
g5
sg14
g5
sg15
g5
sg16
g5
sg17
g5
sg18
g5
sg19
g5
sg20
g5
sg21
F85641.0
sg22
g5
sg23
F75838.0
sg24
g5
sg25
g5
sg26
F9803.0
ssS'FITZGERALD JAY L'
p240
(dp241
g3
F936.0
sg4
g5
sg6
F23870.0
sg7
F3036093.0
sg8
I00
sg9
F556416.0
sg10
S'jay.fitzgerald@enron.com'
p242
sg12
F1.0
sg13
g5
sg14
g5
sg15
F723.0
sg16
g5
sg17
F16.0
sg18
F285414.0
sg19
g5
sg20
F350000.0
sg21
F1621236.0
sg22
F8.0
sg23
F956775.0
sg24
F199157.0
sg25
F1414857.0
sg26
F664461.0
ssS'MORAN MICHAEL P'
p243
(dp244
g3
F672.0
sg4
g5
sg6
g5
sg7
g5
sg8
I00
sg9
g5
sg10
S'michael.moran@enron.com'
p245
sg12
F0.0
sg13
g5
sg14
g5
sg15
F127.0
sg16
g5
sg17
F19.0
sg18
g5
sg19
g5
sg20
g5
sg21
F221141.0
sg22
F0.0
sg23
F161602.0
sg24
g5
sg25
g5
sg26
F59539.0
ssS'REDMOND BRIAN L'
p246
(dp247
g3
F1671.0
sg4
g5
sg6
F14689.0
sg7
F8001853.0
sg8
I00
sg9
g5
sg10
S'brian.redmond@enron.com'
p248
sg12
F204.0
sg13
g5
sg14
g5
sg15
F1063.0
sg16
g5
sg17
F221.0
sg18
g5
sg19
g5
sg20
g5
sg21
F7890324.0
sg22
F49.0
sg23
F381285.0
sg24
F96840.0
sg25
F111529.0
sg26
F7509039.0
ssS'BAZELIDES PHILIP J'
p249
(dp250
g3
g5
sg4
F684694.0
sg6
g5
sg7
F2459777.0
sg8
I00
sg9
F93750.0
sg10
g29
sg12
g5
sg13
g5
sg14
g5
sg15
g5
sg16
g5
sg17
g5
sg18
F874.0
sg19
g5
sg20
g5
sg21
F1599641.0
sg22
g5
sg23
g5
sg24
F80818.0
sg25
F860136.0
sg26
F1599641.0
ssS'BELDEN TIMOTHY N'
p251
(dp252
g3
F7991.0
sg4
F2144013.0
sg6
F17355.0
sg7
F6612335.0
sg8
I01
sg9
g5
sg10
S'tim.belden@enron.com'
p253
sg12
F228.0
sg13
F-2334434.0
sg14
g5
sg15
F5521.0
sg16
g5
sg17
F484.0
sg18
F210698.0
sg19
g5
sg20
F5249999.0
sg21
F1110705.0
sg22
F108.0
sg23
F157569.0
sg24
F213999.0
sg25
F5501630.0
sg26
F953136.0
ssS'DURAN WILLIAM D'
p254
(dp255
g3
F904.0
sg4
g5
sg6
F25785.0
sg7
F3734173.0
sg8
I00
sg9
F1105218.0
sg10
S'w.duran@enron.com'
p256
sg12
F106.0
sg13
g5
sg14
g5
sg15
F599.0
sg16
g5
sg17
F12.0
sg18
F1568.0
sg19
g5
sg20
F750000.0
sg21
F1640910.0
sg22
F3.0
sg23
F189041.0
sg24
F210692.0
sg25
F2093263.0
sg26
F1451869.0
ssS'THORN TERENCE H'
p257
(dp258
g3
F266.0
sg4
F16586.0
sg6
F46145.0
sg7
F5729249.0
sg8
I00
sg9
F200000.0
sg10
S'terence.thorn@enron.com'
p259
sg12
F0.0
sg13
g5
sg14
g5
sg15
F73.0
sg16
g5
sg17
F41.0
sg18
F426629.0
sg19
g5
sg20
g5
sg21
F4817796.0
sg22
F0.0
sg23
F365320.0
sg24
F222093.0
sg25
F911453.0
sg26
F4452476.0
ssS'FASTOW ANDREW S'
p260
(dp261
g3
g5
sg4
g5
sg6
F55921.0
sg7
F4218495.0
sg8
I01
sg9
F1736055.0
sg10
S'andrew.fastow@enron.com'
p262
sg12
g5
sg13
F-1386055.0
sg14
g5
sg15
g5
sg16
g5
sg17
g5
sg18
F277464.0
sg19
g5
sg20
F1300000.0
sg21
F1794412.0
sg22
g5
sg23
F1794412.0
sg24
F440698.0
sg25
F2424083.0
sg26
g5
ssS'FOY JOE'
p263
(dp264
g3
F57.0
sg4
F181755.0
sg6
g5
sg7
F525189.0
sg8
I00
sg9
g5
sg10
S'tracy.foy@enron.com'
p265
sg12
F0.0
sg13
g5
sg14
g5
sg15
F2.0
sg16
g5
sg17
F13.0
sg18
g5
sg19
g5
sg20
g5
sg21
F343434.0
sg22
F0.0
sg23
g5
sg24
g5
sg25
F181755.0
sg26
F343434.0
ssS'CALGER CHRISTOPHER F'
p266
(dp267
g3
F2598.0
sg4
g5
sg6
F35818.0
sg7
F1765324.0
sg8
I01
sg9
F375304.0
sg10
S'christopher.calger@enron.com'
p268
sg12
F199.0
sg13
F-262500.0
sg14
g5
sg15
F2188.0
sg16
g5
sg17
F144.0
sg18
F486.0
sg19
g5
sg20
F1250000.0
sg21
F126027.0
sg22
F25.0
sg23
F126027.0
sg24
F240189.0
sg25
F1639297.0
sg26
g5
ssS'RICE KENNETH D'
p269
(dp270
g3
F905.0
sg4
g5
sg6
F46950.0
sg7
F23047589.0
sg8
I01
sg9
F1617011.0
sg10
S'ken.rice@enron.com'
p271
sg12
F42.0
sg13
F-3504386.0
sg14
g5
sg15
F864.0
sg16
g5
sg17
F18.0
sg18
F174839.0
sg19
g5
sg20
F1750000.0
sg21
F22542539.0
sg22
F4.0
sg23
F2748364.0
sg24
F420636.0
sg25
F505050.0
sg26
F19794175.0
ssS'KAMINSKI WINCENTY J'
p272
(dp273
g3
F4607.0
sg4
g5
sg6
F83585.0
sg7
F2062858.0
sg8
I00
sg9
F323466.0
sg10
S'vince.kaminski@enron.com'
p274
sg12
F41.0
sg13
g5
sg14
g5
sg15
F583.0
sg16
g5
sg17
F14368.0
sg18
F4669.0
sg19
g5
sg20
F400000.0
sg21
F976037.0
sg22
F171.0
sg23
F126027.0
sg24
F275101.0
sg25
F1086821.0
sg26
F850010.0
ssS'LOCKHART EUGENE E'
p275
(dp276
g3
g5
sg4
g5
sg6
g5
sg7
g5
sg8
I00
sg9
g5
sg10
g29
sg12
g5
sg13
g5
sg14
g5
sg15
g5
sg16
g5
sg17
g5
sg18
g5
sg19
g5
sg20
g5
sg21
g5
sg22
g5
sg23
g5
sg24
g5
sg25
g5
sg26
g5
ssS'COX DAVID'
p277
(dp278
g3
F102.0
sg4
g5
sg6
F27861.0
sg7
F1597026.0
sg8
I00
sg9
g5
sg10
S'chip.cox@enron.com'
p279
sg12
F0.0
sg13
F-41250.0
sg14
g5
sg15
F71.0
sg16
g5
sg17
F33.0
sg18
F494.0
sg19
g5
sg20
F800000.0
sg21
F495633.0
sg22
F4.0
sg23
F378082.0
sg24
F314288.0
sg25
F1101393.0
sg26
F117551.0
ssS'OVERDYKE JR JERE C'
p280
(dp281
g3
g5
sg4
g5
sg6
F18834.0
sg7
F7557381.0
sg8
I00
sg9
F135836.0
sg10
S'jere.overdyke@enron.com'
p282
sg12
g5
sg13
g5
sg14
g5
sg15
g5
sg16
g5
sg17
g5
sg18
F176.0
sg19
g5
sg20
g5
sg21
F7307594.0
sg22
g5
sg23
F2041016.0
sg24
F94941.0
sg25
F249787.0
sg26
F5266578.0
ssS'PEREIRA PAULO V. FERRAZ'
p283
(dp284
g3
g5
sg4
g5
sg6
F27942.0
sg7
g5
sg8
I00
sg9
g5
sg10
g29
sg12
g5
sg13
F-101250.0
sg14
g5
sg15
g5
sg16
g5
sg17
g5
sg18
g5
sg19
F101250.0
sg20
g5
sg21
g5
sg22
g5
sg23
g5
sg24
g5
sg25
F27942.0
sg26
g5
ssS'STABLER FRANK'
p285
(dp286
g3
g5
sg4
g5
sg6
F16514.0
sg7
F1623821.0
sg8
I00
sg9
g5
sg10
S'frank.stabler@enron.com'
p287
sg12
g5
sg13
g5
sg14
g5
sg15
g5
sg16
g5
sg17
g5
sg18
F356071.0
sg19
g5
sg20
F500000.0
sg21
F511734.0
sg22
g5
sg23
F511734.0
sg24
F239502.0
sg25
F1112087.0
sg26
g5
ssS'SKILLING JEFFREY K'
p288
(dp289
g3
F3627.0
sg4
g5
sg6
F29336.0
sg7
F34776388.0
sg8
I01
sg9
F1920000.0
sg10
S'jeff.skilling@enron.com'
p290
sg12
F88.0
sg13
g5
sg14
g5
sg15
F2042.0
sg16
g5
sg17
F108.0
sg18
F22122.0
sg19
g5
sg20
F5600000.0
sg21
F26093672.0
sg22
F30.0
sg23
F6843672.0
sg24
F1111258.0
sg25
F8682716.0
sg26
F19250000.0
ssS'BLAKE JR. NORMAN P'
p291
(dp292
g3
g5
sg4
g5
sg6
F1279.0
sg7
g5
sg8
I00
sg9
g5
sg10
g29
sg12
g5
sg13
F-113784.0
sg14
g5
sg15
g5
sg16
g5
sg17
g5
sg18
g5
sg19
F113784.0
sg20
g5
sg21
g5
sg22
g5
sg23
g5
sg24
g5
sg25
F1279.0
sg26
g5
ssS'SHERRICK JEFFREY B'
p293
(dp294
g3
F613.0
sg4
g5
sg6
g5
sg7
g5
sg8
I00
sg9
g5
sg10
S'jeffrey.sherrick@enron.com'
p295
sg12
F39.0
sg13
g5
sg14
g5
sg15
F583.0
sg16
g5
sg17
F25.0
sg18
g5
sg19
g5
sg20
g5
sg21
F1832468.0
sg22
F18.0
sg23
F405999.0
sg24
g5
sg25
g5
sg26
F1426469.0
ssS'PRENTICE JAMES'
p296
(dp297
g3
g5
sg4
F564348.0
sg6
g5
sg7
F1659388.0
sg8
I00
sg9
g5
sg10
S'james.prentice@enron.com'
p298
sg12
g5
sg13
g5
sg14
g5
sg15
g5
sg16
g5
sg17
g5
sg18
g5
sg19
g5
sg20
g5
sg21
F1095040.0
sg22
g5
sg23
F208809.0
sg24
g5
sg25
F564348.0
sg26
F886231.0
ssS'GRAY RODNEY'
p299
(dp300
g3
g5
sg4
F93585.0
sg6
g5
sg7
g5
sg8
I00
sg9
F365625.0
sg10
g29
sg12
g5
sg13
g5
sg14
g5
sg15
g5
sg16
g5
sg17
g5
sg18
F680833.0
sg19
g5
sg20
g5
sg21
g5
sg22
g5
sg23
g5
sg24
F6615.0
sg25
F1146658.0
sg26
g5
ssS'PICKERING MARK R'
p301
(dp302
g3
F898.0
sg4
g5
sg6
F31653.0
sg7
F1415488.0
sg8
I00
sg9
g5
sg10
S'mark.pickering@enron.com'
p303
sg12
F7.0
sg13
g5
sg14
g5
sg15
F728.0
sg16
F400000.0
sg17
F67.0
sg18
g5
sg19
g5
sg20
F300000.0
sg21
F28798.0
sg22
F0.0
sg23
g5
sg24
F655037.0
sg25
F1386690.0
sg26
F28798.0
ssS'NOLES JAMES L'
p304
(dp305
g3
g5
sg4
F774401.0
sg6
g5
sg7
F1143106.0
sg8
I00
sg9
g5
sg10
g29
sg12
g5
sg13
g5
sg14
F-94556.0
sg15
g5
sg16
g5
sg17
g5
sg18
g5
sg19
g5
sg20
g5
sg21
F368705.0
sg22
g5
sg23
F463261.0
sg24
g5
sg25
F774401.0
sg26
g5
ssS'KEAN STEVEN J'
p306
(dp307
g3
F12754.0
sg4
g5
sg6
F41953.0
sg7
F7901164.0
sg8
I00
sg9
F300000.0
sg10
S'steven.kean@enron.com'
p308
sg12
F140.0
sg13
g5
sg14
g5
sg15
F3639.0
sg16
g5
sg17
F6759.0
sg18
F1231.0
sg19
g5
sg20
F1000000.0
sg21
F6153642.0
sg22
F387.0
sg23
F4131594.0
sg24
F404338.0
sg25
F1747522.0
sg26
F2022048.0
ssS'FOWLER PEGGY'
p309
(dp310
g3
F517.0
sg4
g5
sg6
g5
sg7
g5
sg8
I00
sg9
g5
sg10
S'kulvinder.fowler@enron.com'
p311
sg12
F0.0
sg13
g5
sg14
g5
sg15
F10.0
sg16
g5
sg17
F36.0
sg18
g5
sg19
g5
sg20
g5
sg21
F1884748.0
sg22
F0.0
sg23
F560170.0
sg24
g5
sg25
g5
sg26
F1324578.0
ssS'WASAFF GEORGE'
p312
(dp313
g3
F400.0
sg4
F831299.0
sg6
g5
sg7
F3090822.0
sg8
I00
sg9
F200000.0
sg10
S'george.wasaff@enron.com'
p314
sg12
F22.0
sg13
F-583325.0
sg14
g5
sg15
F337.0
sg16
g5
sg17
F30.0
sg18
F1425.0
sg19
g5
sg20
F325000.0
sg21
F2056427.0
sg22
F7.0
sg23
F388167.0
sg24
F259996.0
sg25
F1034395.0
sg26
F1668260.0
ssS'WHITE JR THOMAS E'
p315
(dp316
g3
g5
sg4
g5
sg6
F81353.0
sg7
F17078482.0
sg8
I00
sg9
g5
sg10
S'thomas.white@enron.com'
p317
sg12
g5
sg13
g5
sg14
g5
sg15
g5
sg16
g5
sg17
g5
sg18
F1085463.0
sg19
g5
sg20
F450000.0
sg21
F15144123.0
sg22
g5
sg23
F13847074.0
sg24
F317543.0
sg25
F1934359.0
sg26
F1297049.0
ssS'CHRISTODOULOU DIOMEDES'
p318
(dp319
g3
g5
sg4
g5
sg6
g5
sg7
g5
sg8
I00
sg9
g5
sg10
S'diomedes.christodoulou@enron.com'
p320
sg12
g5
sg13
g5
sg14
g5
sg15
g5
sg16
g5
sg17
g5
sg18
g5
sg19
g5
sg20
g5
sg21
F6077885.0
sg22
g5
sg23
F950730.0
sg24
g5
sg25
g5
sg26
F5127155.0
ssS'ALLEN PHILLIP K'
p321
(dp322
g3
F2902.0
sg4
F2869717.0
sg6
F13868.0
sg7
F6213983.0
sg8
I00
sg9
F304805.0
sg10
S'phillip.allen@enron.com'
p323
sg12
F47.0
sg13
F-3081055.0
sg14
F-126027.0
sg15
F1407.0
sg16
g5
sg17
F2195.0
sg18
F152.0
sg19
g5
sg20
F4175000.0
sg21
F1729541.0
sg22
F65.0
sg23
F126027.0
sg24
F201955.0
sg25
F4484442.0
sg26
F1729541.0
ssS'SHARP VICTORIA T'
p324
(dp325
g3
F3136.0
sg4
F187469.0
sg6
F116337.0
sg7
F2070647.0
sg8
I00
sg9
F422158.0
sg10
S'vicki.sharp@enron.com'
p326
sg12
F24.0
sg13
g5
sg14
g5
sg15
F2477.0
sg16
g5
sg17
F136.0
sg18
F2401.0
sg19
g5
sg20
F600000.0
sg21
F494136.0
sg22
F6.0
sg23
F213063.0
sg24
F248146.0
sg25
F1576511.0
sg26
F281073.0
ssS'JAEDICKE ROBERT'
p327
(dp328
g3
g5
sg4
g5
sg6
g5
sg7
F515500.0
sg8
I00
sg9
g5
sg10
g29
sg12
g5
sg13
F-25000.0
sg14
F-44093.0
sg15
g5
sg16
g5
sg17
g5
sg18
g5
sg19
F108750.0
sg20
g5
sg21
F431750.0
sg22
g5
sg23
F44093.0
sg24
g5
sg25
F83750.0
sg26
F431750.0
ssS'WINOKUR JR. HERBERT S'
p329
(dp330
g3
g5
sg4
g5
sg6
F1413.0
sg7
g5
sg8
I00
sg9
g5
sg10
g29
sg12
g5
sg13
F-25000.0
sg14
g5
sg15
g5
sg16
g5
sg17
g5
sg18
g5
sg19
F108579.0
sg20
g5
sg21
g5
sg22
g5
sg23
g5
sg24
g5
sg25
F84992.0
sg26
g5
ssS'BROWN MICHAEL'
p331
(dp332
g3
F1486.0
sg4
g5
sg6
F49288.0
sg7
g5
sg8
I00
sg9
g5
sg10
S'michael.brown@enron.com'
p333
sg12
F13.0
sg13
g5
sg14
g5
sg15
F761.0
sg16
g5
sg17
F41.0
sg18
g5
sg19
g5
sg20
g5
sg21
g5
sg22
F1.0
sg23
g5
sg24
g5
sg25
F49288.0
sg26
g5
ssS'BADUM JAMES P'
p334
(dp335
g3
g5
sg4
F178980.0
sg6
F3486.0
sg7
F440283.0
sg8
I00
sg9
g5
sg10
g29
sg12
g5
sg13
g5
sg14
g5
sg15
g5
sg16
g5
sg17
g5
sg18
g5
sg19
g5
sg20
g5
sg21
F257817.0
sg22
g5
sg23
g5
sg24
g5
sg25
F182466.0
sg26
F257817.0
ssS'HUGHES JAMES A'
p336
(dp337
g3
F719.0
sg4
g5
sg6
g5
sg7
g5
sg8
I00
sg9
g5
sg10
S'james.hughes@enron.com'
p338
sg12
F35.0
sg13
g5
sg14
g5
sg15
F589.0
sg16
g5
sg17
F34.0
sg18
g5
sg19
g5
sg20
g5
sg21
F1118394.0
sg22
F5.0
sg23
F363428.0
sg24
g5
sg25
g5
sg26
F754966.0
ssS'REYNOLDS LAWRENCE'
p339
(dp340
g3
g5
sg4
F51365.0
sg6
F8409.0
sg7
F4616366.0
sg8
I00
sg9
F156250.0
sg10
g29
sg12
g5
sg13
F-200000.0
sg14
F-140264.0
sg15
g5
sg16
g5
sg17
g5
sg18
F202052.0
sg19
g5
sg20
F100000.0
sg21
F4221891.0
sg22
g5
sg23
F201483.0
sg24
F76399.0
sg25
F394475.0
sg26
F4160672.0
ssS'DIMICHELE RICHARD G'
p341
(dp342
g3
g5
sg4
g5
sg6
F35812.0
sg7
F10685933.0
sg8
I00
sg9
F694862.0
sg10
S'richard.dimichele@enron.com'
p343
sg12
g5
sg13
g5
sg14
g5
sg15
g5
sg16
g5
sg17
g5
sg18
F374689.0
sg19
g5
sg20
F1000000.0
sg21
F8317782.0
sg22
g5
sg23
F126027.0
sg24
F262788.0
sg25
F2368151.0
sg26
F8191755.0
ssS'BHATNAGAR SANJAY'
p344
(dp345
g3
F523.0
sg4
g5
sg6
g5
sg7
g5
sg8
I00
sg9
g5
sg10
S'sanjay.bhatnagar@enron.com'
p346
sg12
F0.0
sg13
g5
sg14
F15456290.0
sg15
F463.0
sg16
g5
sg17
F29.0
sg18
F137864.0
sg19
F137864.0
sg20
g5
sg21
g5
sg22
F1.0
sg23
F-2604490.0
sg24
g5
sg25
F15456290.0
sg26
F2604490.0
ssS'CARTER REBECCA C'
p347
(dp348
g3
F312.0
sg4
g5
sg6
g5
sg7
g5
sg8
I00
sg9
F75000.0
sg10
S'rebecca.carter@enron.com'
p349
sg12
F29.0
sg13
F-159792.0
sg14
F-307301.0
sg15
F196.0
sg16
g5
sg17
F15.0
sg18
F540.0
sg19
g5
sg20
F300000.0
sg21
g5
sg22
F7.0
sg23
F307301.0
sg24
F261809.0
sg25
F477557.0
sg26
g5
ssS'BUCHANAN HAROLD G'
p350
(dp351
g3
F1088.0
sg4
g5
sg6
F600.0
sg7
F2069142.0
sg8
I00
sg9
F304805.0
sg10
S'john.buchanan@enron.com'
p352
sg12
F0.0
sg13
g5
sg14
g5
sg15
F23.0
sg16
g5
sg17
F125.0
sg18
F1215.0
sg19
g5
sg20
F500000.0
sg21
F1014505.0
sg22
F0.0
sg23
F189041.0
sg24
F248017.0
sg25
F1054637.0
sg26
F825464.0
ssS'YEAP SOON'
p353
(dp354
g3
g5
sg4
g5
sg6
F55097.0
sg7
F247855.0
sg8
I00
sg9
g5
sg10
g29
sg12
g5
sg13
g5
sg14
g5
sg15
g5
sg16
g5
sg17
g5
sg18
g5
sg19
g5
sg20
g5
sg21
F192758.0
sg22
g5
sg23
g5
sg24
g5
sg25
F55097.0
sg26
F192758.0
ssS'MURRAY JULIA H'
p355
(dp356
g3
F2192.0
sg4
g5
sg6
F57580.0
sg7
F1409655.0
sg8
I00
sg9
F125000.0
sg10
S'julia.murray@enron.com'
p357
sg12
F11.0
sg13
g5
sg14
g5
sg15
F395.0
sg16
g5
sg17
F45.0
sg18
F330.0
sg19
g5
sg20
F400000.0
sg21
F597461.0
sg22
F2.0
sg23
F196983.0
sg24
F229284.0
sg25
F812194.0
sg26
F400478.0
ssS'GARLAND C KEVIN'
p358
(dp359
g3
F209.0
sg4
g5
sg6
F48405.0
sg7
F2462622.0
sg8
I00
sg9
F375304.0
sg10
S'kevin.garland@enron.com'
p360
sg12
F10.0
sg13
g5
sg14
g5
sg15
F178.0
sg16
g5
sg17
F44.0
sg18
F60814.0
sg19
g5
sg20
F850000.0
sg21
F896153.0
sg22
F27.0
sg23
F259907.0
sg24
F231946.0
sg25
F1566469.0
sg26
F636246.0
ssS'DODSON KEITH'
p361
(dp362
g3
F176.0
sg4
g5
sg6
F28164.0
sg7
g5
sg8
I00
sg9
g5
sg10
S'keith.dodson@enron.com'
p363
sg12
F10.0
sg13
g5
sg14
g5
sg15
F114.0
sg16
g5
sg17
F14.0
sg18
F774.0
sg19
g5
sg20
F70000.0
sg21
g5
sg22
F3.0
sg23
g5
sg24
F221003.0
sg25
F319941.0
sg26
g5
ssS'YEAGER F SCOTT'
p364
(dp365
g3
g5
sg4
g5
sg6
F53947.0
sg7
F12245058.0
sg8
I01
sg9
g5
sg10
S'scott.yeager@enron.com'
p366
sg12
g5
sg13
g5
sg14
g5
sg15
g5
sg16
g5
sg17
g5
sg18
F147950.0
sg19
g5
sg20
g5
sg21
F11884758.0
sg22
g5
sg23
F3576206.0
sg24
F158403.0
sg25
F360300.0
sg26
F8308552.0
ssS'HIRKO JOSEPH'
p367
(dp368
g3
g5
sg4
F10259.0
sg6
F77978.0
sg7
F30857157.0
sg8
I01
sg9
g5
sg10
S'joe.hirko@enron.com'
p369
sg12
g5
sg13
g5
sg14
g5
sg15
g5
sg16
g5
sg17
g5
sg18
F2856.0
sg19
g5
sg20
g5
sg21
F30766064.0
sg22
g5
sg23
g5
sg24
g5
sg25
F91093.0
sg26
F30766064.0
ssS'DIETRICH JANET R'
p370
(dp371
g3
F2572.0
sg4
g5
sg6
F3475.0
sg7
F3275551.0
sg8
I00
sg9
F556416.0
sg10
S'janet.dietrich@enron.com'
p372
sg12
F305.0
sg13
g5
sg14
g5
sg15
F1902.0
sg16
g5
sg17
F63.0
sg18
F473.0
sg19
g5
sg20
F600000.0
sg21
F1865087.0
sg22
F14.0
sg23
F315068.0
sg24
F250100.0
sg25
F1410464.0
sg26
F1550019.0
ssS'DERRICK JR. JAMES V'
p373
(dp374
g3
F2181.0
sg4
g5
sg6
F51124.0
sg7
F9382894.0
sg8
I00
sg9
F484000.0
sg10
S'james.derrick@enron.com'
p375
sg12
F64.0
sg13
F-1284000.0
sg14
F-1787380.0
sg15
F1401.0
sg16
g5
sg17
F909.0
sg18
F7482.0
sg19
g5
sg20
F800000.0
sg21
F8831913.0
sg22
F20.0
sg23
F1787380.0
sg24
F492375.0
sg25
F550981.0
sg26
F8831913.0
ssS'FREVERT MARK A'
p376
(dp377
g3
F3275.0
sg4
F6426990.0
sg6
F86987.0
sg7
F31874715.0
sg8
I00
sg9
F1617011.0
sg10
S'mark.frevert@enron.com'
p378
sg12
F242.0
sg13
F-3367011.0
sg14
g5
sg15
F2979.0
sg16
F2000000.0
sg17
F21.0
sg18
F7427621.0
sg19
g5
sg20
F2000000.0
sg21
F14622185.0
sg22
F6.0
sg23
F4188667.0
sg24
F1060932.0
sg25
F17252530.0
sg26
F10433518.0
ssS'PAI LOU L'
p379
(dp380
g3
g5
sg4
g5
sg6
F32047.0
sg7
F26941313.0
sg8
I00
sg9
g5
sg10
S'lou.pai@enron.com'
p381
sg12
g5
sg13
g5
sg14
g5
sg15
g5
sg16
g5
sg17
g5
sg18
F1829457.0
sg19
g5
sg20
F1000000.0
sg21
F23817930.0
sg22
g5
sg23
F8453763.0
sg24
F261879.0
sg25
F3123383.0
sg26
F15364167.0
ssS'BAY FRANKLIN R'
p382
(dp383
g3
g5
sg4
F260455.0
sg6
F129142.0
sg7
F890710.0
sg8
I00
sg9
g5
sg10
S'frank.bay@enron.com'
p384
sg12
g5
sg13
F-201641.0
sg14
F-82782.0
sg15
g5
sg16
g5
sg17
g5
sg18
F69.0
sg19
g5
sg20
F400000.0
sg21
F63014.0
sg22
g5
sg23
F145796.0
sg24
F239671.0
sg25
F827696.0
sg26
g5
ssS'HAYSLETT RODERICK J'
p385
(dp386
g3
F2649.0
sg4
g5
sg6
g5
sg7
g5
sg8
I00
sg9
g5
sg10
S'rod.hayslett@enron.com'
p387
sg12
F35.0
sg13
g5
sg14
g5
sg15
F571.0
sg16
g5
sg17
F1061.0
sg18
g5
sg19
g5
sg20
g5
sg21
F346663.0
sg22
F38.0
sg23
F346663.0
sg24
g5
sg25
g5
sg26
g5
ssS'FUGH JOHN L'
p388
(dp389
g3
g5
sg4
F50591.0
sg6
g5
sg7
F226969.0
sg8
I00
sg9
g5
sg10
g29
sg12
g5
sg13
g5
sg14
g5
sg15
g5
sg16
g5
sg17
g5
sg18
g5
sg19
g5
sg20
g5
sg21
F176378.0
sg22
g5
sg23
g5
sg24
g5
sg25
F50591.0
sg26
F176378.0
ssS'FALLON JAMES B'
p390
(dp391
g3
F1755.0
sg4
g5
sg6
F95924.0
sg7
F6008739.0
sg8
I00
sg9
F374347.0
sg10
S'jim.fallon@enron.com'
p392
sg12
F42.0
sg13
g5
sg14
g5
sg15
F1604.0
sg16
g5
sg17
F75.0
sg18
F401481.0
sg19
g5
sg20
F2500000.0
sg21
F2332399.0
sg22
F37.0
sg23
F1392142.0
sg24
F304588.0
sg25
F3676340.0
sg26
F940257.0
ssS'KOENIG MARK E'
p393
(dp394
g3
F2374.0
sg4
g5
sg6
F127017.0
sg7
F3507476.0
sg8
I01
sg9
F300000.0
sg10
S'mark.koenig@enron.com'
p395
sg12
F53.0
sg13
g5
sg14
g5
sg15
F2271.0
sg16
g5
sg17
F61.0
sg18
F150458.0
sg19
g5
sg20
F700000.0
sg21
F1920055.0
sg22
F15.0
sg23
F1248318.0
sg24
F309946.0
sg25
F1587421.0
sg26
F671737.0
ssS'SAVAGE FRANK'
p396
(dp397
g3
g5
sg4
g5
sg6
g5
sg7
g5
sg8
I00
sg9
g5
sg10
g29
sg12
g5
sg13
F-121284.0
sg14
g5
sg15
g5
sg16
g5
sg17
g5
sg18
g5
sg19
F125034.0
sg20
g5
sg21
g5
sg22
g5
sg23
g5
sg24
g5
sg25
F3750.0
sg26
g5
ssS'IZZO LAWRENCE L'
p398
(dp399
g3
F496.0
sg4
g5
sg6
F28093.0
sg7
F7799576.0
sg8
I00
sg9
F312500.0
sg10
S'larry.izzo@enron.com'
p400
sg12
F28.0
sg13
g5
sg14
g5
sg15
F437.0
sg16
g5
sg17
F19.0
sg18
F1553729.0
sg19
g5
sg20
g5
sg21
F5819980.0
sg22
F5.0
sg23
F3654808.0
sg24
F85274.0
sg25
F1979596.0
sg26
F2165172.0
ssS'TILNEY ELIZABETH A'
p401
(dp402
g3
F460.0
sg4
g5
sg6
g5
sg7
F1567435.0
sg8
I00
sg9
F275000.0
sg10
S'elizabeth.tilney@enron.com'
p403
sg12
F10.0
sg13
F-575000.0
sg14
g5
sg15
F379.0
sg16
g5
sg17
F19.0
sg18
F152055.0
sg19
g5
sg20
F300000.0
sg21
F1168042.0
sg22
F11.0
sg23
F576792.0
sg24
F247338.0
sg25
F399393.0
sg26
F591250.0
ssS'MARTIN AMANDA K'
p404
(dp405
g3
F1522.0
sg4
F85430.0
sg6
F8211.0
sg7
F10477322.0
sg8
I00
sg9
F5145434.0
sg10
S'a..martin@enron.com'
p406
sg12
F8.0
sg13
g5
sg14
g5
sg15
F477.0
sg16
g5
sg17
F230.0
sg18
F2818454.0
sg19
g5
sg20
g5
sg21
F2070306.0
sg22
F0.0
sg23
g5
sg24
F349487.0
sg25
F8407016.0
sg26
F2070306.0
ssS'BUY RICHARD B'
p407
(dp408
g3
F3523.0
sg4
F649584.0
sg6
g5
sg7
F5800172.0
sg8
I00
sg9
F769862.0
sg10
S'rick.buy@enron.com'
p409
sg12
F156.0
sg13
F-694862.0
sg14
g5
sg15
F2333.0
sg16
g5
sg17
F1053.0
sg18
F400572.0
sg19
g5
sg20
F900000.0
sg21
F3444470.0
sg22
F71.0
sg23
F901657.0
sg24
F330546.0
sg25
F2355702.0
sg26
F2542813.0
ssS'GRAMM WENDY L'
p410
(dp411
g3
g5
sg4
g5
sg6
g5
sg7
g5
sg8
I00
sg9
g5
sg10
g29
sg12
g5
sg13
g5
sg14
g5
sg15
g5
sg16
g5
sg17
g5
sg18
g5
sg19
F119292.0
sg20
g5
sg21
g5
sg22
g5
sg23
g5
sg24
g5
sg25
F119292.0
sg26
g5
ssS'CAUSEY RICHARD A'
p412
(dp413
g3
F1892.0
sg4
g5
sg6
F30674.0
sg7
F4370821.0
sg8
I01
sg9
F350000.0
sg10
S'richard.causey@enron.com'
p414
sg12
F58.0
sg13
F-235000.0
sg14
g5
sg15
F1585.0
sg16
g5
sg17
F49.0
sg18
F307895.0
sg19
g5
sg20
F1000000.0
sg21
F2502063.0
sg22
F12.0
sg23
F2502063.0
sg24
F415189.0
sg25
F1868758.0
sg26
g5
ssS'TAYLOR MITCHELL S'
p415
(dp416
g3
F533.0
sg4
F227449.0
sg6
g5
sg7
F4837711.0
sg8
I00
sg9
g5
sg10
S'mitchell.taylor@enron.com'
p417
sg12
F0.0
sg13
g5
sg14
g5
sg15
F300.0
sg16
g5
sg17
F29.0
sg18
g5
sg19
g5
sg20
F600000.0
sg21
F3745048.0
sg22
F0.0
sg23
F563798.0
sg24
F265214.0
sg25
F1092663.0
sg26
F3181250.0
ssS'DONAHUE JR JEFFREY M'
p418
(dp419
g3
F865.0
sg4
g5
sg6
F96268.0
sg7
F1956748.0
sg8
I00
sg9
g5
sg10
S'jeff.donahue@enron.com'
p420
sg12
F188.0
sg13
F-300000.0
sg14
g5
sg15
F772.0
sg16
g5
sg17
F22.0
sg18
F891.0
sg19
g5
sg20
F800000.0
sg21
F1080988.0
sg22
F11.0
sg23
F315068.0
sg24
F278601.0
sg25
F875760.0
sg26
F765920.0
ssS'GLISAN JR BEN F'
p421
(dp422
g3
F873.0
sg4
g5
sg6
F125978.0
sg7
F2050830.0
sg8
I01
sg9
F71023.0
sg10
S'ben.glisan@enron.com'
p423
sg12
F52.0
sg13
g5
sg14
g5
sg15
F874.0
sg16
g5
sg17
F16.0
sg18
F200308.0
sg19
g5
sg20
F600000.0
sg21
F778546.0
sg22
F6.0
sg23
F393818.0
sg24
F274975.0
sg25
F1272284.0
sg26
F384728.0
ss.