(lp0
S'poi'
p1
aS'salary'
p2
aS'bonus'
p3
aS'total_payments'
p4
aS'deferral_payments'
p5
aS'deferred_income'
p6
aS'director_fees'
p7
aS'expenses'
p8
aS'exercised_stock_options'
p9
aS'loan_advances'
p10
aS'long_term_incentive'
p11
aS'restricted_stock'
p12
aS'restricted_stock_deferred'
p13
aS'total_stock_value'
p14
aS'from_messages'
p15
aS'from_poi_to_this_person'
p16
aS'from_this_person_to_poi'
p17
aS'shared_receipt_with_poi'
p18
aS'to_messages'
p19
aS'cost_to_company'
p20
a.